; Function Attrs: nounwind uwtable
define ptr @Pdr_QueuePop(ptr noundef captures(none) %0) local_unnamed_addr #9 {
  %2 = getelementptr inbounds nuw i8, ptr %0, i64 120
  %3 = load ptr, ptr %2, align 8
  %4 = icmp eq ptr %3, null
  br i1 %4, label %11, label %5

5:                                                ; preds = %1
  %6 = getelementptr inbounds nuw i8, ptr %3, i64 32
  %7 = load ptr, ptr %6, align 8
  store ptr %7, ptr %2, align 8
  tail call void @Pdr_OblDeref(ptr noundef nonnull %3)
  %8 = getelementptr inbounds nuw i8, ptr %0, i64 344
  %9 = load i32, ptr %8, align 8
  %10 = add nsw i32 %9, -1
  store i32 %10, ptr %8, align 8
  br label %11

11:                                               ; preds = %1, %5
  ret ptr %3
}